target datalayout = "e-m:e-p270:32:32-p271:32:32-p272:64:64-i64:64-i128:128-f80:128-n8:16:32:64-S128"
target triple = "x86_64-pc-linux-gnu"

%"struct.faiss::Index" = type <{ ptr, i32, [4 x i8], i64, i8, i8, [2 x i8], i32, float, [4 x i8] }>

; Function Attrs: mustprogress nounwind uwtable
define linkonce_odr void @_ZN5faiss19IndexShardsTemplateINS_5IndexEED2Ev(ptr noundef nonnull align 8 dereferenceable(66) %0) unnamed_addr #0 comdat align 2 {
  %2 = alloca ptr, align 8
  store ptr %0, ptr %2, align 8
  %3 = load ptr, ptr %2, align 8
  call void @_ZN5faiss13ThreadedIndexINS_5IndexEED2Ev(ptr noundef nonnull align 8 dereferenceable(65) %3) #5
  ret void
}

; Function Attrs: mustprogress uwtable
define void @_ZN5faiss14IndexShardsIVFC2EPNS_5IndexEmbb(ptr noundef nonnull align 8 dereferenceable(144) %0, ptr noundef %1, i64 noundef %2, i1 noundef zeroext %3, i1 noundef zeroext %4) unnamed_addr #1 align 2 personality ptr @__gxx_personality_v0 {
  %6 = alloca ptr, align 8
  %7 = alloca ptr, align 8
  %8 = alloca i64, align 8
  %9 = alloca i8, align 1
  %10 = alloca i8, align 1
  %11 = alloca ptr, align 8
  %12 = alloca i32, align 4
  store ptr %0, ptr %6, align 8
  store ptr %1, ptr %7, align 8
  store i64 %2, ptr %8, align 8
  %13 = zext i1 %3 to i8
  store i8 %13, ptr %9, align 1
  %14 = zext i1 %4 to i8
  store i8 %14, ptr %10, align 1
  %15 = load ptr, ptr %6, align 8
  %16 = load ptr, ptr %7, align 8
  %17 = getelementptr inbounds %"struct.faiss::Index", ptr %16, i32 0, i32 1
  %18 = load i32, ptr %17, align 8
  %19 = load i8, ptr %9, align 1
  %20 = trunc i8 %19 to i1
  %21 = load i8, ptr %10, align 1
  %22 = trunc i8 %21 to i1
  call void @_ZN5faiss19IndexShardsTemplateINS_5IndexEEC2Eibb(ptr noundef nonnull align 8 dereferenceable(66) %15, i32 noundef %18, i1 noundef zeroext %20, i1 noundef zeroext %22)
  %23 = getelementptr inbounds i8, ptr %15, i64 72
  %24 = load ptr, ptr %7, align 8
  %25 = load i64, ptr %8, align 8
  invoke void @_ZN5faiss15Level1QuantizerC2EPNS_5IndexEm(ptr noundef nonnull align 8 dereferenceable(72) %23, ptr noundef %24, i64 noundef %25)
          to label %26 unwind label %41

26:                                               ; preds = %5
  store ptr getelementptr inbounds ({ [28 x ptr] }, ptr @_ZTVN5faiss14IndexShardsIVFE, i32 0, i32 0, i32 2), ptr %15, align 8
  %27 = load ptr, ptr %7, align 8
  %28 = getelementptr inbounds %"struct.faiss::Index", ptr %27, i32 0, i32 5
  %29 = load i8, ptr %28, align 1
  %30 = trunc i8 %29 to i1
  br i1 %30, label %31, label %37

31:                                               ; preds = %26
  %32 = load ptr, ptr %7, align 8
  %33 = getelementptr inbounds %"struct.faiss::Index", ptr %32, i32 0, i32 3
  %34 = load i64, ptr %33, align 8
  %35 = load i64, ptr %8, align 8
  %36 = icmp eq i64 %34, %35
  br label %37

37:                                               ; preds = %31, %26
  %38 = phi i1 [ false, %26 ], [ %36, %31 ]
  %39 = getelementptr inbounds %"struct.faiss::Index", ptr %15, i32 0, i32 5
  %40 = zext i1 %38 to i8
  store i8 %40, ptr %39, align 1
  ret void

41:                                               ; preds = %5
  %42 = landingpad { ptr, i32 }
          cleanup
  %43 = extractvalue { ptr, i32 } %42, 0
  store ptr %43, ptr %11, align 8
  %44 = extractvalue { ptr, i32 } %42, 1
  store i32 %44, ptr %12, align 4
  call void @_ZN5faiss19IndexShardsTemplateINS_5IndexEED2Ev(ptr noundef nonnull align 8 dereferenceable(66) %15) #5
  br label %45

45:                                               ; preds = %41
  %46 = load ptr, ptr %11, align 8
  %47 = load i32, ptr %12, align 4
  %48 = insertvalue { ptr, i32 } poison, ptr %46, 0
  %49 = insertvalue { ptr, i32 } %48, i32 %47, 1
  resume { ptr, i32 } %49
}