; Function Attrs: mustprogress uwtable
define void @_ZN5faiss14IndexShardsIVFC2EPNS_5IndexEmbb(ptr noundef nonnull align 8 dereferenceable(144) %0, ptr noundef %1, i64 noundef %2, i1 noundef zeroext %3, i1 noundef zeroext %4) unnamed_addr #1 align 2 personality ptr @__gxx_personality_v0 {
  %6 = getelementptr inbounds i8, ptr %1, i64 8
  %7 = load i32, ptr %6, align 8
  tail call void @_ZN5faiss19IndexShardsTemplateINS_5IndexEEC2Eibb(ptr noundef nonnull align 8 dereferenceable(66) %0, i32 noundef %7, i1 noundef zeroext %3, i1 noundef zeroext %4)
  %8 = getelementptr inbounds i8, ptr %0, i64 72
  invoke void @_ZN5faiss15Level1QuantizerC2EPNS_5IndexEm(ptr noundef nonnull align 8 dereferenceable(72) %8, ptr noundef nonnull %1, i64 noundef %2)
          to label %9 unwind label %21

9:                                                ; preds = %5
  store ptr getelementptr inbounds ({ [28 x ptr] }, ptr @_ZTVN5faiss14IndexShardsIVFE, i64 0, i32 0, i64 2), ptr %0, align 8
  %10 = getelementptr inbounds i8, ptr %1, i64 25
  %11 = load i8, ptr %10, align 1
  %12 = and i8 %11, 1
  %.not = icmp eq i8 %12, 0
  br i1 %.not, label %18, label %13

13:                                               ; preds = %9
  %14 = getelementptr inbounds i8, ptr %1, i64 16
  %15 = load i64, ptr %14, align 8
  %16 = icmp eq i64 %15, %2
  %17 = zext i1 %16 to i8
  br label %18

18:                                               ; preds = %13, %9
  %19 = phi i8 [ 0, %9 ], [ %17, %13 ]
  %20 = getelementptr inbounds i8, ptr %0, i64 25
  store i8 %19, ptr %20, align 1
  ret void

21:                                               ; preds = %5
  %22 = landingpad { ptr, i32 }
          cleanup
  tail call void @_ZN5faiss13ThreadedIndexINS_5IndexEED2Ev(ptr noundef nonnull align 8 dereferenceable(65) %0) #19
  resume { ptr, i32 } %22
}